; Function Attrs: mustprogress uwtable
define hidden void @_ZN14iexpr_inverter7add_defEP4exprS1_(ptr nocapture noundef nonnull readonly align 8 dereferenceable(57) %this, ptr noundef %v, ptr noundef %def) local_unnamed_addr #6 align 2 personality ptr @__gxx_personality_v0 {
entry:
  %_v = alloca %class.obj_ref, align 8
  %_d = alloca %class.obj_ref, align 8
  %m = getelementptr inbounds i8, ptr %this, i64 8
  %0 = load ptr, ptr %m, align 8
  store ptr %v, ptr %_v, align 8
  %m_manager.i = getelementptr inbounds i8, ptr %_v, i64 8
  store ptr %0, ptr %m_manager.i, align 8
  %tobool.not.i.i = icmp eq ptr %v, null
  br i1 %tobool.not.i.i, label %_ZN7obj_refI4expr11ast_managerEC2EPS0_RS1_.exit, label %_ZN11ast_manager7inc_refEP3ast.exit.i.i

_ZN11ast_manager7inc_refEP3ast.exit.i.i:          ; preds = %entry
  %m_ref_count.i.i.i.i = getelementptr inbounds i8, ptr %v, i64 8
  %1 = load i32, ptr %m_ref_count.i.i.i.i, align 4
  %inc.i.i.i.i = add i32 %1, 1
  store i32 %inc.i.i.i.i, ptr %m_ref_count.i.i.i.i, align 4
  %.pre = load ptr, ptr %m, align 8
  br label %_ZN7obj_refI4expr11ast_managerEC2EPS0_RS1_.exit

_ZN7obj_refI4expr11ast_managerEC2EPS0_RS1_.exit:  ; preds = %entry, %_ZN11ast_manager7inc_refEP3ast.exit.i.i
  %2 = phi ptr [ %0, %entry ], [ %.pre, %_ZN11ast_manager7inc_refEP3ast.exit.i.i ]
  store ptr %def, ptr %_d, align 8
  %m_manager.i4 = getelementptr inbounds i8, ptr %_d, i64 8
  store ptr %2, ptr %m_manager.i4, align 8
  %tobool.not.i.i5 = icmp eq ptr %def, null
  br i1 %tobool.not.i.i5, label %invoke.cont, label %_ZN11ast_manager7inc_refEP3ast.exit.i.i6

_ZN11ast_manager7inc_refEP3ast.exit.i.i6:         ; preds = %_ZN7obj_refI4expr11ast_managerEC2EPS0_RS1_.exit
  %m_ref_count.i.i.i.i7 = getelementptr inbounds i8, ptr %def, i64 8
  %3 = load i32, ptr %m_ref_count.i.i.i.i7, align 4
  %inc.i.i.i.i8 = add i32 %3, 1
  store i32 %inc.i.i.i.i8, ptr %m_ref_count.i.i.i.i7, align 4
  br label %invoke.cont

invoke.cont:                                      ; preds = %_ZN11ast_manager7inc_refEP3ast.exit.i.i6, %_ZN7obj_refI4expr11ast_managerEC2EPS0_RS1_.exit
  %m_mc = getelementptr inbounds i8, ptr %this, i64 48
  %4 = load ptr, ptr %m_mc, align 8
  %cmp.i = icmp eq ptr %4, null
  br i1 %cmp.i, label %cleanup, label %if.end

lpad3:                                            ; preds = %if.end
  %5 = landingpad { ptr, i32 }
          cleanup
  call void @_ZN7obj_refI4expr11ast_managerED2Ev(ptr noundef nonnull align 8 dereferenceable(16) %_d) #15
  call void @_ZN7obj_refI4expr11ast_managerED2Ev(ptr noundef nonnull align 8 dereferenceable(16) %_v) #15
  resume { ptr, i32 } %5

if.end:                                           ; preds = %invoke.cont
  %m_decl.i.i = getelementptr inbounds i8, ptr %v, i64 16
  %6 = load ptr, ptr %m_decl.i.i, align 8
  invoke void @_ZN23generic_model_converter3addEP9func_declP4expr(ptr noundef nonnull align 8 dereferenceable(80) %4, ptr noundef %6, ptr noundef %def)
          to label %cleanup unwind label %lpad3

cleanup:                                          ; preds = %if.end, %invoke.cont
  br i1 %tobool.not.i.i5, label %_ZN7obj_refI4expr11ast_managerED2Ev.exit, label %if.then.i.i.i

if.then.i.i.i:                                    ; preds = %cleanup
  %m_ref_count.i.i.i.i11 = getelementptr inbounds i8, ptr %def, i64 8
  %7 = load i32, ptr %m_ref_count.i.i.i.i11, align 4
  %dec.i.i.i.i = add i32 %7, -1
  store i32 %dec.i.i.i.i, ptr %m_ref_count.i.i.i.i11, align 4
  %cmp.i.i.i = icmp eq i32 %dec.i.i.i.i, 0
  br i1 %cmp.i.i.i, label %if.then2.i.i.i, label %_ZN7obj_refI4expr11ast_managerED2Ev.exit

if.then2.i.i.i:                                   ; preds = %if.then.i.i.i
  invoke void @_ZN11ast_manager11delete_nodeEP3ast(ptr noundef nonnull align 8 dereferenceable(976) %2, ptr noundef nonnull %def)
          to label %_ZN7obj_refI4expr11ast_managerED2Ev.exit unwind label %terminate.lpad.i

terminate.lpad.i:                                 ; preds = %if.then2.i.i.i
  %8 = landingpad { ptr, i32 }
          catch ptr null
  %9 = extractvalue { ptr, i32 } %8, 0
  tail call void @__clang_call_terminate(ptr %9) #16
  unreachable

_ZN7obj_refI4expr11ast_managerED2Ev.exit:         ; preds = %cleanup, %if.then.i.i.i, %if.then2.i.i.i
  br i1 %tobool.not.i.i, label %_ZN7obj_refI4expr11ast_managerED2Ev.exit20, label %if.then.i.i.i13

if.then.i.i.i13:                                  ; preds = %_ZN7obj_refI4expr11ast_managerED2Ev.exit
  %m_ref_count.i.i.i.i15 = getelementptr inbounds i8, ptr %v, i64 8
  %10 = load i32, ptr %m_ref_count.i.i.i.i15, align 4
  %dec.i.i.i.i16 = add i32 %10, -1
  store i32 %dec.i.i.i.i16, ptr %m_ref_count.i.i.i.i15, align 4
  %cmp.i.i.i17 = icmp eq i32 %dec.i.i.i.i16, 0
  br i1 %cmp.i.i.i17, label %if.then2.i.i.i18, label %_ZN7obj_refI4expr11ast_managerED2Ev.exit20

if.then2.i.i.i18:                                 ; preds = %if.then.i.i.i13
  invoke void @_ZN11ast_manager11delete_nodeEP3ast(ptr noundef nonnull align 8 dereferenceable(976) %0, ptr noundef nonnull %v)
          to label %_ZN7obj_refI4expr11ast_managerED2Ev.exit20 unwind label %terminate.lpad.i19

terminate.lpad.i19:                               ; preds = %if.then2.i.i.i18
  %11 = landingpad { ptr, i32 }
          catch ptr null
  %12 = extractvalue { ptr, i32 } %11, 0
  tail call void @__clang_call_terminate(ptr %12) #16
  unreachable

_ZN7obj_refI4expr11ast_managerED2Ev.exit20:       ; preds = %_ZN7obj_refI4expr11ast_managerED2Ev.exit, %if.then.i.i.i13, %if.then2.i.i.i18
  ret void
}